; Function Attrs: nounwind uwtable
define dso_local range(i64 -2147483648, 2147483648) i64 @mxid_age(ptr noundef readonly captures(none) %0) local_unnamed_addr #0 {
  %2 = getelementptr inbounds nuw i8, ptr %0, i64 32
  %3 = load i64, ptr %2, align 8
  %4 = trunc i64 %3 to i32
  %5 = tail call i32 @ReadNextMultiXactId() #7
  %.not = icmp eq i32 %4, 0
  %6 = sub i32 %5, %4
  %narrow = select i1 %.not, i32 2147483647, i32 %6
  %.0 = sext i32 %narrow to i64
  ret i64 %.0
}